(lp1
(lp2
I9
aI0
aI0
aI0
aa(lp3
I1
aI0
aI0
aI0
aa(lp4
I2
aI0
aI0
aI0
aa(lp5
I4
aI0
aI0
aI0
aa(lp6
I7
aI0
aI0
aI0
aa(lp7
I2
aI0
aI0
aI0
aa(lp8
I4
aI0
aI0
aI0
aa(lp9
I2
aI0
aI0
aI0
aa(lp10
I1
aI0
aI0
aI0
aa(lp11
I6
aI0
aI0
aI0
aa(lp12
I2
aI0
aI0
aI0
aa(lp13
I4
aI0
aI0
aI0
aa(lp14
I2
aI0
aI0
aI0
aa(lp15
I4
aI0
aI0
aI0
aa(lp16
I4
aI0
aI0
aI0
aa(lp17
I4
aI0
aI0
aI0
aa(lp18
I0
aI0
aI0
aI0
aa(lp19
I7
aI0
aI0
aI0
aa(lp20
I5
aI0
aI0
aI0
aa(lp21
I4
aI0
aI0
aI0
aa(lp22
I3
aI0
aI0
aI0
aa(lp23
I2
aI0
aI0
aI0
aa(lp24
I3
aI0
aI0
aI0
aa(lp25
I7
aI0
aI0
aI0
aa(lp26
I3
aI0
aI0
aI0
aa(lp27
I4
aI0
aI0
aI0
aa(lp28
I1
aI0
aI0
aI0
aa(lp29
I2
aI0
aI0
aI0
aa(lp30
I4
aI0
aI0
aI0
aa(lp31
I6
aI0
aI0
aI0
aa(lp32
I1
aI0
aI0
aI0
aa(lp33
I2
aI0
aI0
aI0
aa(lp34
I4
aI0
aI0
aI0
aa(lp35
I3
aI0
aI0
aI0
aa(lp36
I3
aI0
aI0
aI0
aa(lp37
I3
aI0
aI0
aI0
aa(lp38
I4
aI0
aI0
aI0
aa(lp39
I3
aI0
aI0
aI0
aa(lp40
I7
aI0
aI0
aI0
aa(lp41
I2
aI0
aI0
aI0
aa(lp42
I8
aI0
aI0
aI0
aa(lp43
I3
aI0
aI0
aI0
aa(lp44
I3
aI0
aI0
aI0
aa(lp45
I1
aI0
aI0
aI0
aa(lp46
I1
aI0
aI0
aI0
aa(lp47
I4
aI0
aI0
aI0
aa(lp48
I5
aI0
aI0
aI0
aa(lp49
I1
aI0
aI0
aI0
aa(lp50
I2
aI0
aI0
aI0
aa(lp51
I1
aI0
aI0
aI0
aa(lp52
I4
aI0
aI0
aI0
aa(lp53
I8
aI0
aI0
aI0
aa(lp54
I7
aI0
aI0
aI0
aa(lp55
I2
aI0
aI0
aI0
aa(lp56
I5
aI0
aI0
aI0
aa(lp57
I8
aI0
aI0
aI0
aa(lp58
I3
aI0
aI0
aI0
aa(lp59
I4
aI0
aI0
aI0
aa(lp60
I1
aI0
aI0
aI0
aa(lp61
I2
aI0
aI0
aI0
aa(lp62
I10
aI0
aI0
aI0
aa(lp63
I4
aI0
aI0
aI0
aa(lp64
I3
aI0
aI0
aI0
aa(lp65
I2
aI0
aI0
aI0
aa(lp66
I3
aI0
aI0
aI0
aa(lp67
I1
aI0
aI0
aI0
aa(lp68
I4
aI0
aI0
aI0
aa(lp69
I6
aI0
aI0
aI0
aa(lp70
I5
aI0
aI0
aI0
aa(lp71
I4
aI0
aI0
aI0
aa(lp72
I9
aI0
aI0
aI0
aa(lp73
I6
aI0
aI0
aI0
aa(lp74
I3
aI0
aI0
aI0
aa(lp75
I2
aI0
aI0
aI0
aa(lp76
I8
aI0
aI0
aI0
aa(lp77
I2
aI0
aI0
aI0
aa(lp78
I4
aI0
aI0
aI0
aa(lp79
I5
aI0
aI0
aI0
aa(lp80
I6
aI0
aI0
aI0
aa(lp81
I3
aI0
aI0
aI0
aa(lp82
I1
aI0
aI0
aI0
aa(lp83
I1
aI0
aI0
aI0
aa(lp84
I0
aI0
aI0
aI0
aa(lp85
I5
aI0
aI0
aI0
aa(lp86
I3
aI0
aI0
aI0
aa(lp87
I2
aI0
aI0
aI0
aa(lp88
I6
aI0
aI0
aI0
aa(lp89
I3
aI0
aI0
aI0
aa(lp90
I2
aI0
aI0
aI0
aa(lp91
I3
aI0
aI0
aI0
aa(lp92
I4
aI0
aI0
aI0
aa(lp93
I4
aI0
aI0
aI0
aa(lp94
I1
aI0
aI0
aI0
aa(lp95
I3
aI0
aI0
aI0
aa(lp96
I2
aI0
aI0
aI0
aa(lp97
I4
aI0
aI0
aI0
aa(lp98
I2
aI0
aI0
aI0
aa(lp99
I3
aI0
aI0
aI0
aa(lp100
I7
aI0
aI0
aI0
aa(lp101
I6
aI0
aI0
aI0
aa(lp102
I2
aI0
aI0
aI0
aa(lp103
I1
aI0
aI0
aI0
aa(lp104
I2
aI0
aI0
aI0
aa(lp105
I1
aI0
aI0
aI0
aa(lp106
I0
aI0
aI0
aI0
aa(lp107
I5
aI0
aI0
aI0
aa(lp108
I3
aI0
aI0
aI0
aa(lp109
I6
aI0
aI0
aI0
aa(lp110
I0
aI0
aI0
aI0
aa(lp111
I3
aI0
aI0
aI0
aa(lp112
I0
aI0
aI0
aI0
aa(lp113
I1
aI0
aI0
aI0
aa(lp114
I1
aI0
aI0
aI0
aa(lp115
I4
aI0
aI0
aI0
aa(lp116
I1
aI0
aI0
aI0
aa(lp117
I3
aI0
aI0
aI0
aa(lp118
I7
aI0
aI0
aI0
aa(lp119
I4
aI0
aI0
aI0
aa(lp120
I3
aI0
aI0
aI0
aa(lp121
I2
aI0
aI0
aI0
aa(lp122
I3
aI0
aI0
aI0
aa(lp123
I2
aI0
aI0
aI0
aa(lp124
I3
aI0
aI0
aI0
aa(lp125
I9
aI0
aI0
aI0
aa(lp126
I4
aI0
aI0
aI0
aa(lp127
I4
aI0
aI0
aI0
aa(lp128
I3
aI0
aI0
aI0
aa(lp129
I3
aI0
aI0
aI0
aa(lp130
I0
aI0
aI0
aI0
aa(lp131
I7
aI0
aI0
aI0
aa(lp132
I3
aI0
aI0
aI0
aa(lp133
I7
aI0
aI0
aI0
aa(lp134
I5
aI0
aI0
aI0
aa(lp135
I4
aI0
aI0
aI0
aa(lp136
I3
aI0
aI0
aI0
aa(lp137
I9
aI0
aI0
aI0
aa(lp138
I3
aI0
aI0
aI0
aa(lp139
I3
aI0
aI0
aI0
aa(lp140
I4
aI0
aI0
aI0
aa(lp141
I1
aI0
aI0
aI0
aa(lp142
I3
aI0
aI0
aI0
aa(lp143
I3
aI0
aI0
aI0
aa(lp144
I5
aI0
aI0
aI0
aa(lp145
I4
aI0
aI0
aI0
aa(lp146
I6
aI0
aI0
aI0
aa(lp147
I3
aI0
aI0
aI0
aa(lp148
I2
aI0
aI0
aI0
aa(lp149
I2
aI0
aI0
aI0
aa(lp150
I4
aI0
aI0
aI0
aa(lp151
I2
aI0
aI0
aI0
aa(lp152
I4
aI0
aI0
aI0
aa(lp153
I3
aI0
aI0
aI0
aa(lp154
I6
aI0
aI0
aI0
aa(lp155
I3
aI0
aI0
aI0
aa(lp156
I6
aI0
aI0
aI0
aa(lp157
I1
aI0
aI0
aI0
aa(lp158
I3
aI0
aI0
aI0
aa(lp159
I7
aI0
aI0
aI0
aa(lp160
I5
aI0
aI0
aI0
aa(lp161
I7
aI0
aI0
aI0
aa(lp162
I4
aI0
aI0
aI0
aa(lp163
I3
aI0
aI0
aI0
aa(lp164
I2
aI0
aI0
aI0
aa(lp165
I1
aI0
aI0
aI0
aa(lp166
I7
aI0
aI0
aI0
aa(lp167
I2
aI0
aI0
aI0
aa(lp168
I7
aI0
aI0
aI0
aa(lp169
I1
aI0
aI0
aI0
aa(lp170
I1
aI0
aI0
aI0
aa(lp171
I3
aI0
aI0
aI0
aa(lp172
I3
aI0
aI0
aI0
aa(lp173
I4
aI0
aI0
aI0
aa(lp174
I2
aI0
aI0
aI0
aa(lp175
I4
aI0
aI0
aI0
aa(lp176
I2
aI0
aI0
aI0
aa(lp177
I6
aI0
aI0
aI0
aa(lp178
I3
aI0
aI0
aI0
aa(lp179
I3
aI0
aI0
aI0
aa(lp180
I6
aI0
aI0
aI0
aa(lp181
I1
aI0
aI0
aI0
aa(lp182
I3
aI0
aI0
aI0
aa(lp183
I4
aI0
aI0
aI0
aa(lp184
I1
aI0
aI0
aI0
aa(lp185
I6
aI0
aI0
aI0
aa(lp186
I6
aI0
aI0
aI0
aa(lp187
I3
aI0
aI0
aI0
aa(lp188
I3
aI0
aI0
aI0
aa(lp189
I3
aI0
aI0
aI0
aa(lp190
I3
aI0
aI0
aI0
aa(lp191
I6
aI0
aI0
aI0
aa(lp192
I4
aI0
aI0
aI0
aa(lp193
I1
aI0
aI0
aI0
aa(lp194
I5
aI0
aI0
aI0
aa(lp195
I1
aI0
aI0
aI0
aa(lp196
I3
aI0
aI0
aI0
aa(lp197
I4
aI0
aI0
aI0
aa(lp198
I5
aI0
aI0
aI0
aa(lp199
I1
aI0
aI0
aI0
aa(lp200
I4
aI0
aI0
aI0
aa(lp201
I0
aI0
aI0
aI0
aa(lp202
I2
aI0
aI0
aI0
aa(lp203
I2
aI0
aI0
aI0
aa(lp204
I7
aI0
aI0
aI0
aa(lp205
I2
aI0
aI0
aI0
aa(lp206
I2
aI0
aI0
aI0
aa(lp207
I4
aI0
aI0
aI0
aa(lp208
I5
aI0
aI0
aI0
aa(lp209
I5
aI0
aI0
aI0
aa(lp210
I5
aI0
aI0
aI0
aa(lp211
I0
aI0
aI0
aI0
aa(lp212
I2
aI0
aI0
aI0
aa(lp213
I2
aI0
aI0
aI0
aa(lp214
I0
aI0
aI0
aI0
aa(lp215
I4
aI0
aI0
aI0
aa(lp216
I2
aI0
aI0
aI0
aa(lp217
I3
aI0
aI0
aI0
aa(lp218
I2
aI0
aI0
aI0
aa(lp219
I3
aI0
aI0
aI0
aa(lp220
I4
aI0
aI0
aI0
aa(lp221
I0
aI0
aI0
aI0
aa(lp222
I8
aI0
aI0
aI0
aa(lp223
I3
aI0
aI0
aI0
aa(lp224
I4
aI0
aI0
aI0
aa(lp225
I2
aI0
aI0
aI0
aa(lp226
I2
aI0
aI0
aI0
aa(lp227
I2
aI0
aI0
aI0
aa(lp228
I1
aI0
aI0
aI0
aa(lp229
I6
aI0
aI0
aI0
aa(lp230
I1
aI0
aI0
aI0
aa(lp231
I3
aI0
aI0
aI0
aa(lp232
I2
aI0
aI0
aI0
aa(lp233
I3
aI0
aI0
aI0
aa(lp234
I6
aI0
aI0
aI0
aa(lp235
I2
aI0
aI0
aI0
aa(lp236
I2
aI0
aI0
aI0
aa(lp237
I2
aI0
aI0
aI0
aa(lp238
I6
aI0
aI0
aI0
aa(lp239
I4
aI0
aI0
aI0
aa(lp240
I1
aI0
aI0
aI0
aa(lp241
I7
aI0
aI0
aI0
aa(lp242
I6
aI0
aI0
aI0
aa(lp243
I7
aI0
aI0
aI0
aa(lp244
I5
aI0
aI0
aI0
aa(lp245
I0
aI0
aI0
aI0
aa(lp246
I9
aI0
aI0
aI0
aa(lp247
I2
aI0
aI0
aI0
aa(lp248
I3
aI0
aI0
aI0
aa(lp249
I4
aI0
aI0
aI0
aa(lp250
I3
aI0
aI0
aI0
aa(lp251
I1
aI0
aI0
aI0
aa(lp252
I4
aI0
aI0
aI0
aa(lp253
I2
aI0
aI0
aI0
aa(lp254
I5
aI0
aI0
aI0
aa(lp255
I3
aI0
aI0
aI0
aa(lp256
I5
aI0
aI0
aI0
aa(lp257
I4
aI0
aI0
aI0
aa(lp258
I1
aI0
aI0
aI0
aa(lp259
I5
aI0
aI0
aI0
aa(lp260
I2
aI0
aI0
aI0
aa(lp261
I9
aI0
aI0
aI0
aa(lp262
I3
aI0
aI0
aI0
aa(lp263
I7
aI0
aI0
aI0
aa(lp264
I6
aI0
aI0
aI0
aa(lp265
I2
aI0
aI0
aI0
aa(lp266
I2
aI0
aI0
aI0
aa(lp267
I0
aI0
aI0
aI0
aa(lp268
I3
aI0
aI0
aI0
aa(lp269
I3
aI0
aI0
aI0
aa(lp270
I8
aI0
aI0
aI0
aa(lp271
I4
aI0
aI0
aI0
aa(lp272
I1
aI0
aI0
aI0
aa(lp273
I3
aI0
aI0
aI0
aa(lp274
I1
aI0
aI0
aI0
aa(lp275
I6
aI0
aI0
aI0
aa(lp276
I11
aI0
aI0
aI0
aa(lp277
I4
aI0
aI0
aI0
aa(lp278
I9
aI0
aI0
aI0
aa(lp279
I17
aI0
aI0
aI0
aa(lp280
I4
aI0
aI0
aI0
aa(lp281
I6
aI0
aI0
aI0
aa(lp282
I3
aI0
aI0
aI0
aa(lp283
I2
aI0
aI0
aI0
aa(lp284
I4
aI0
aI0
aI0
aa(lp285
I0
aI0
aI0
aI0
aa(lp286
I4
aI0
aI0
aI0
aa(lp287
I3
aI0
aI0
aI0
aa(lp288
I5
aI0
aI0
aI0
aa(lp289
I2
aI0
aI0
aI0
aa(lp290
I7
aI0
aI0
aI0
aa(lp291
I1
aI0
aI0
aI0
aa(lp292
I3
aI0
aI0
aI0
aa(lp293
I3
aI0
aI0
aI0
aa(lp294
I4
aI0
aI0
aI0
aa(lp295
I3
aI0
aI0
aI0
aa(lp296
I2
aI0
aI0
aI0
aa(lp297
I10
aI0
aI0
aI0
aa(lp298
I5
aI0
aI0
aI0
aa(lp299
I2
aI0
aI0
aI0
aa(lp300
I7
aI0
aI0
aI0
aa(lp301
I2
aI0
aI0
aI0
aa(lp302
I1
aI0
aI0
aI0
aa(lp303
I3
aI0
aI0
aI0
aa(lp304
I2
aI0
aI0
aI0
aa(lp305
I9
aI0
aI0
aI0
aa(lp306
I7
aI0
aI0
aI0
aa(lp307
I1
aI0
aI0
aI0
aa(lp308
I1
aI0
aI0
aI0
aa(lp309
I1
aI0
aI0
aI0
aa(lp310
I0
aI0
aI0
aI0
aa(lp311
I3
aI0
aI0
aI0
aa(lp312
I4
aI0
aI0
aI0
aa(lp313
I2
aI0
aI0
aI0
aa(lp314
I2
aI0
aI0
aI0
aa(lp315
I10
aI0
aI0
aI0
aa(lp316
I1
aI0
aI0
aI0
aa(lp317
I0
aI0
aI0
aI0
aa(lp318
I5
aI0
aI0
aI0
aa(lp319
I3
aI0
aI0
aI0
aa(lp320
I3
aI0
aI0
aI0
aa(lp321
I10
aI0
aI0
aI0
aa(lp322
I3
aI0
aI0
aI0
aa(lp323
I1
aI0
aI0
aI0
aa(lp324
I4
aI0
aI0
aI0
aa(lp325
I5
aI0
aI0
aI0
aa(lp326
I3
aI0
aI0
aI0
aa(lp327
I5
aI0
aI0
aI0
aa(lp328
I2
aI0
aI0
aI0
aa(lp329
I4
aI0
aI0
aI0
aa(lp330
I1
aI0
aI0
aI0
aa(lp331
I8
aI0
aI0
aI0
aa(lp332
I5
aI0
aI0
aI0
aa(lp333
I3
aI0
aI0
aI0
aa(lp334
I4
aI0
aI0
aI0
aa(lp335
I0
aI0
aI0
aI0
aa(lp336
I7
aI0
aI0
aI0
aa(lp337
I3
aI0
aI0
aI0
aa(lp338
I1
aI0
aI0
aI0
aa(lp339
I4
aI0
aI0
aI0
aa(lp340
I6
aI0
aI0
aI0
aa(lp341
I5
aI0
aI0
aI0
aa(lp342
I5
aI0
aI0
aI0
aa(lp343
I3
aI0
aI0
aI0
aa(lp344
I2
aI0
aI0
aI0
aa(lp345
I2
aI0
aI0
aI0
aa(lp346
I6
aI0
aI0
aI0
aa(lp347
I1
aI0
aI0
aI0
aa(lp348
I4
aI0
aI0
aI0
aa(lp349
I4
aI0
aI0
aI0
aa(lp350
I3
aI0
aI0
aI0
aa(lp351
I4
aI0
aI0
aI0
aa(lp352
I3
aI0
aI0
aI0
aa(lp353
I1
aI0
aI0
aI0
aa(lp354
I5
aI0
aI0
aI0
aa(lp355
I1
aI0
aI0
aI0
aa(lp356
I2
aI0
aI0
aI0
aa(lp357
I2
aI0
aI0
aI0
aa(lp358
I8
aI0
aI0
aI0
aa(lp359
I4
aI0
aI0
aI0
aa(lp360
I2
aI0
aI0
aI0
aa(lp361
I4
aI0
aI0
aI0
aa(lp362
I5
aI0
aI0
aI0
aa(lp363
I9
aI0
aI0
aI0
aa(lp364
I11
aI0
aI0
aI0
aa(lp365
I3
aI0
aI0
aI0
aa(lp366
I4
aI0
aI0
aI0
aa(lp367
I2
aI0
aI0
aI0
aa(lp368
I7
aI0
aI0
aI0
aa(lp369
I6
aI0
aI0
aI0
aa(lp370
I14
aI0
aI0
aI0
aa(lp371
I6
aI0
aI0
aI0
aa(lp372
I0
aI0
aI0
aI0
aa(lp373
I1
aI0
aI0
aI0
aa(lp374
I5
aI0
aI0
aI0
aa(lp375
I3
aI0
aI0
aI0
aa(lp376
I3
aI0
aI0
aI0
aa(lp377
I6
aI0
aI0
aI0
aa(lp378
I0
aI0
aI0
aI0
aa(lp379
I5
aI0
aI0
aI0
aa(lp380
I4
aI0
aI0
aI0
aa(lp381
I5
aI0
aI0
aI0
aa(lp382
I4
aI0
aI0
aI0
aa(lp383
I3
aI0
aI0
aI0
aa(lp384
I3
aI0
aI0
aI0
aa(lp385
I2
aI0
aI0
aI0
aa(lp386
I3
aI0
aI0
aI0
aa(lp387
I3
aI0
aI0
aI0
aa(lp388
I4
aI0
aI0
aI0
aa(lp389
I0
aI0
aI0
aI0
aa(lp390
I3
aI0
aI0
aI0
aa(lp391
I3
aI0
aI0
aI0
aa(lp392
I4
aI0
aI0
aI0
aa(lp393
I4
aI0
aI0
aI0
aa(lp394
I5
aI0
aI0
aI0
aa(lp395
I6
aI0
aI0
aI0
aa(lp396
I2
aI0
aI0
aI0
aa(lp397
I7
aI0
aI0
aI0
aa(lp398
I4
aI0
aI0
aI0
aa(lp399
I3
aI0
aI0
aI0
aa(lp400
I5
aI0
aI0
aI0
aa(lp401
I2
aI0
aI0
aI0
aa(lp402
I4
aI0
aI0
aI0
aa(lp403
I6
aI0
aI0
aI0
aa(lp404
I1
aI0
aI0
aI0
aa(lp405
I4
aI0
aI0
aI0
aa(lp406
I3
aI0
aI0
aI0
aa(lp407
I4
aI0
aI0
aI0
aa(lp408
I2
aI0
aI0
aI0
aa(lp409
I2
aI0
aI0
aI0
aa(lp410
I4
aI0
aI0
aI0
aa(lp411
I4
aI0
aI0
aI0
aa(lp412
I3
aI0
aI0
aI0
aa(lp413
I5
aI0
aI0
aI0
aa(lp414
I4
aI0
aI0
aI0
aa(lp415
I3
aI0
aI0
aI0
aa(lp416
I3
aI0
aI0
aI0
aa(lp417
I3
aI0
aI0
aI0
aa(lp418
I6
aI0
aI0
aI0
aa(lp419
I6
aI0
aI0
aI0
aa(lp420
I3
aI0
aI0
aI0
aa(lp421
I6
aI0
aI0
aI0
aa(lp422
I6
aI0
aI0
aI0
aa(lp423
I3
aI0
aI0
aI0
aa(lp424
I4
aI0
aI0
aI0
aa(lp425
I3
aI0
aI0
aI0
aa(lp426
I5
aI0
aI0
aI0
aa(lp427
I6
aI0
aI0
aI0
aa(lp428
I1
aI0
aI0
aI0
aa(lp429
I6
aI0
aI0
aI0
aa(lp430
I2
aI0
aI0
aI0
aa(lp431
I5
aI0
aI0
aI0
aa(lp432
I6
aI0
aI0
aI0
aa(lp433
I7
aI0
aI0
aI0
aa(lp434
I7
aI0
aI0
aI0
aa(lp435
I1
aI0
aI0
aI0
aa(lp436
I3
aI0
aI0
aI0
aa(lp437
I4
aI0
aI0
aI0
aa(lp438
I5
aI0
aI0
aI0
aa(lp439
I4
aI0
aI0
aI0
aa(lp440
I4
aI0
aI0
aI0
aa(lp441
I2
aI0
aI0
aI0
aa(lp442
I8
aI0
aI0
aI0
aa(lp443
I0
aI0
aI0
aI0
aa(lp444
I1
aI0
aI0
aI0
aa(lp445
I3
aI0
aI0
aI0
aa(lp446
I2
aI0
aI0
aI0
aa(lp447
I1
aI0
aI0
aI0
aa(lp448
I3
aI0
aI0
aI0
aa(lp449
I3
aI0
aI0
aI0
aa(lp450
I6
aI0
aI0
aI0
aa(lp451
I3
aI0
aI0
aI0
aa(lp452
I2
aI0
aI0
aI0
aa(lp453
I3
aI0
aI0
aI0
aa(lp454
I4
aI0
aI0
aI0
aa(lp455
I5
aI0
aI0
aI0
aa(lp456
I4
aI0
aI0
aI0
aa(lp457
I3
aI0
aI0
aI0
aa(lp458
I1
aI0
aI0
aI0
aa(lp459
I5
aI0
aI0
aI0
aa(lp460
I2
aI0
aI0
aI0
aa(lp461
I5
aI0
aI0
aI0
aa(lp462
I3
aI0
aI0
aI0
aa(lp463
I5
aI0
aI0
aI0
aa(lp464
I4
aI0
aI0
aI0
aa(lp465
I2
aI0
aI0
aI0
aa(lp466
I3
aI0
aI0
aI0
aa(lp467
I4
aI0
aI0
aI0
aa(lp468
I5
aI0
aI0
aI0
aa(lp469
I2
aI0
aI0
aI0
aa(lp470
I4
aI0
aI0
aI0
aa(lp471
I6
aI0
aI0
aI0
aa(lp472
I6
aI0
aI0
aI0
aa(lp473
I4
aI0
aI0
aI0
aa(lp474
I0
aI0
aI0
aI0
aa(lp475
I5
aI0
aI0
aI0
aa(lp476
I6
aI0
aI0
aI0
aa(lp477
I3
aI0
aI0
aI0
aa(lp478
I7
aI0
aI0
aI0
aa(lp479
I2
aI0
aI0
aI0
aa(lp480
I1
aI0
aI0
aI0
aa(lp481
I4
aI0
aI0
aI0
aa(lp482
I2
aI0
aI0
aI0
aa(lp483
I1
aI0
aI0
aI0
aa(lp484
I5
aI0
aI0
aI0
aa(lp485
I6
aI0
aI0
aI0
aa(lp486
I9
aI0
aI0
aI0
aa(lp487
I3
aI0
aI0
aI0
aa(lp488
I2
aI0
aI0
aI0
aa(lp489
I8
aI0
aI0
aI0
aa(lp490
I3
aI0
aI0
aI0
aa(lp491
I6
aI0
aI0
aI0
aa(lp492
I2
aI0
aI0
aI0
aa(lp493
I1
aI0
aI0
aI0
aa(lp494
I2
aI0
aI0
aI0
aa(lp495
I3
aI0
aI0
aI0
aa(lp496
I1
aI0
aI0
aI0
aa(lp497
I5
aI0
aI0
aI0
aa(lp498
I1
aI0
aI0
aI0
aa(lp499
I2
aI0
aI0
aI0
aa(lp500
I4
aI0
aI0
aI0
aa(lp501
I12
aI0
aI0
aI0
aa(lp502
I8
aI0
aI0
aI0
aa(lp503
I2
aI0
aI0
aI0
aa(lp504
I2
aI0
aI0
aI0
aa(lp505
I1
aI0
aI0
aI0
aa(lp506
I5
aI0
aI0
aI0
aa(lp507
I7
aI0
aI0
aI0
aa(lp508
I7
aI0
aI0
aI0
aa(lp509
I2
aI0
aI0
aI0
aa(lp510
I3
aI0
aI0
aI0
aa(lp511
I5
aI0
aI0
aI0
aa(lp512
I3
aI0
aI0
aI0
aa(lp513
I4
aI0
aI0
aI0
aa(lp514
I4
aI0
aI0
aI0
aa(lp515
I2
aI0
aI0
aI0
aa(lp516
I5
aI0
aI0
aI0
aa(lp517
I1
aI0
aI0
aI0
aa(lp518
I1
aI0
aI0
aI0
aa(lp519
I4
aI0
aI0
aI0
aa(lp520
I3
aI0
aI0
aI0
aa(lp521
I2
aI0
aI0
aI0
aa(lp522
I3
aI0
aI0
aI0
aa(lp523
I6
aI0
aI0
aI0
aa(lp524
I3
aI0
aI0
aI0
aa(lp525
I5
aI0
aI0
aI0
aa(lp526
I6
aI0
aI0
aI0
aa(lp527
I4
aI0
aI0
aI0
aa(lp528
I7
aI0
aI0
aI0
aa(lp529
I0
aI0
aI0
aI0
aa(lp530
I3
aI0
aI0
aI0
aa(lp531
I5
aI0
aI0
aI0
aa(lp532
I2
aI0
aI0
aI0
aa(lp533
I1
aI0
aI0
aI0
aa(lp534
I2
aI0
aI0
aI0
aa(lp535
I2
aI0
aI0
aI0
aa(lp536
I1
aI0
aI0
aI0
aa(lp537
I0
aI0
aI0
aI0
aa(lp538
I3
aI0
aI0
aI0
aa(lp539
I6
aI0
aI0
aI0
aa(lp540
I2
aI0
aI0
aI0
aa(lp541
I3
aI0
aI0
aI0
aa(lp542
I5
aI0
aI0
aI0
aa(lp543
I1
aI0
aI0
aI0
aa(lp544
I5
aI0
aI0
aI0
aa(lp545
I6
aI0
aI0
aI0
aa(lp546
I0
aI0
aI0
aI0
aa(lp547
I5
aI0
aI0
aI0
aa(lp548
I4
aI0
aI0
aI0
aa(lp549
I5
aI0
aI0
aI0
aa(lp550
I4
aI0
aI0
aI0
aa(lp551
I3
aI0
aI0
aI0
aa(lp552
I2
aI0
aI0
aI0
aa(lp553
I4
aI0
aI0
aI0
aa(lp554
I2
aI0
aI0
aI0
aa(lp555
I1
aI0
aI0
aI0
aa(lp556
I5
aI0
aI0
aI0
aa(lp557
I2
aI0
aI0
aI0
aa(lp558
I9
aI0
aI0
aI0
aa(lp559
I3
aI0
aI0
aI0
aa(lp560
I1
aI0
aI0
aI0
aa(lp561
I3
aI0
aI0
aI0
aa(lp562
I1
aI0
aI0
aI0
aa(lp563
I2
aI0
aI0
aI0
aa(lp564
I2
aI0
aI0
aI0
aa(lp565
I6
aI0
aI0
aI0
aa(lp566
I1
aI0
aI0
aI0
aa(lp567
I8
aI0
aI0
aI0
aa(lp568
I2
aI0
aI0
aI0
aa(lp569
I3
aI0
aI0
aI0
aa(lp570
I3
aI0
aI0
aI0
aa(lp571
I5
aI0
aI0
aI0
aa(lp572
I3
aI0
aI0
aI0
aa(lp573
I2
aI0
aI0
aI0
aa(lp574
I3
aI0
aI0
aI0
aa(lp575
I3
aI0
aI0
aI0
aa(lp576
I4
aI0
aI0
aI0
aa(lp577
I4
aI0
aI0
aI0
aa(lp578
I5
aI0
aI0
aI0
aa(lp579
I6
aI0
aI0
aI0
aa(lp580
I4
aI0
aI0
aI0
aa(lp581
I5
aI0
aI0
aI0
aa(lp582
I7
aI0
aI0
aI0
aa(lp583
I4
aI0
aI0
aI0
aa(lp584
I5
aI0
aI0
aI0
aa(lp585
I2
aI0
aI0
aI0
aa(lp586
I1
aI0
aI0
aI0
aa(lp587
I9
aI0
aI0
aI0
aa(lp588
I8
aI0
aI0
aI0
aa(lp589
I6
aI0
aI0
aI0
aa(lp590
I5
aI0
aI0
aI0
aa(lp591
I8
aI0
aI0
aI0
aa(lp592
I3
aI0
aI0
aI0
aa(lp593
I0
aI0
aI0
aI0
aa(lp594
I4
aI0
aI0
aI0
aa(lp595
I8
aI0
aI0
aI0
aa(lp596
I3
aI0
aI0
aI0
aa(lp597
I4
aI0
aI0
aI0
aa(lp598
I6
aI0
aI0
aI0
aa(lp599
I4
aI0
aI0
aI0
aa(lp600
I3
aI0
aI0
aI0
aa(lp601
I0
aI0
aI0
aI0
aa(lp602
I7
aI0
aI0
aI0
aa(lp603
I3
aI0
aI0
aI0
aa(lp604
I4
aI0
aI0
aI0
aa(lp605
I3
aI0
aI0
aI0
aa(lp606
I2
aI0
aI0
aI0
aa(lp607
I4
aI0
aI0
aI0
aa(lp608
I4
aI0
aI0
aI0
aa(lp609
I1
aI0
aI0
aI0
aa(lp610
I4
aI0
aI0
aI0
aa(lp611
I7
aI0
aI0
aI0
aa(lp612
I0
aI0
aI0
aI0
aa(lp613
I7
aI0
aI0
aI0
aa(lp614
I4
aI0
aI0
aI0
aa(lp615
I1
aI0
aI0
aI0
aa(lp616
I6
aI0
aI0
aI0
aa(lp617
I0
aI0
aI0
aI0
aa(lp618
I3
aI0
aI0
aI0
aa(lp619
I1
aI0
aI0
aI0
aa(lp620
I4
aI0
aI0
aI0
aa(lp621
I3
aI0
aI0
aI0
aa(lp622
I1
aI0
aI0
aI0
aa(lp623
I3
aI0
aI0
aI0
aa(lp624
I5
aI0
aI0
aI0
aa(lp625
I6
aI0
aI0
aI0
aa(lp626
I3
aI0
aI0
aI0
aa(lp627
I3
aI0
aI0
aI0
aa(lp628
I6
aI0
aI0
aI0
aa(lp629
I2
aI0
aI0
aI0
aa(lp630
I1
aI0
aI0
aI0
aa(lp631
I3
aI0
aI0
aI0
aa(lp632
I2
aI0
aI0
aI0
aa(lp633
I5
aI0
aI0
aI0
aa(lp634
I2
aI0
aI0
aI0
aa(lp635
I5
aI0
aI0
aI0
aa(lp636
I6
aI0
aI0
aI0
aa(lp637
I4
aI0
aI0
aI0
aa(lp638
I2
aI0
aI0
aI0
aa(lp639
I9
aI0
aI0
aI0
aa(lp640
I11
aI0
aI0
aI0
aa(lp641
I4
aI0
aI0
aI0
aa(lp642
I3
aI0
aI0
aI0
aa(lp643
I2
aI0
aI0
aI0
aa(lp644
I0
aI0
aI0
aI0
aa(lp645
I4
aI0
aI0
aI0
aa(lp646
I1
aI0
aI0
aI0
aa(lp647
I4
aI0
aI0
aI0
aa(lp648
I3
aI0
aI0
aI0
aa(lp649
I3
aI0
aI0
aI0
aa(lp650
I5
aI0
aI0
aI0
aa(lp651
I3
aI0
aI0
aI0
aa(lp652
I6
aI0
aI0
aI0
aa(lp653
I5
aI0
aI0
aI0
aa(lp654
I2
aI0
aI0
aI0
aa(lp655
I5
aI0
aI0
aI0
aa(lp656
I2
aI0
aI0
aI0
aa(lp657
I5
aI0
aI0
aI0
aa(lp658
I3
aI0
aI0
aI0
aa(lp659
I4
aI0
aI0
aI0
aa(lp660
I0
aI0
aI0
aI0
aa(lp661
I0
aI0
aI0
aI0
aa(lp662
I4
aI0
aI0
aI0
aa(lp663
I4
aI0
aI0
aI0
aa(lp664
I1
aI0
aI0
aI0
aa(lp665
I4
aI0
aI0
aI0
aa(lp666
I3
aI0
aI0
aI0
aa(lp667
I7
aI0
aI0
aI0
aa(lp668
I5
aI0
aI0
aI0
aa(lp669
I1
aI0
aI0
aI0
aa(lp670
I6
aI0
aI0
aI0
aa(lp671
I2
aI0
aI0
aI0
aa(lp672
I4
aI0
aI0
aI0
aa(lp673
I2
aI0
aI0
aI0
aa(lp674
I1
aI0
aI0
aI0
aa(lp675
I3
aI0
aI0
aI0
aa(lp676
I1
aI0
aI0
aI0
aa(lp677
I3
aI0
aI0
aI0
aa(lp678
I3
aI0
aI0
aI0
aa(lp679
I11
aI0
aI0
aI0
aa(lp680
I1
aI0
aI0
aI0
aa(lp681
I2
aI0
aI0
aI0
aa(lp682
I1
aI0
aI0
aI0
aa(lp683
I9
aI0
aI0
aI0
aa(lp684
I3
aI0
aI0
aI0
aa(lp685
I2
aI0
aI0
aI0
aa(lp686
I2
aI0
aI0
aI0
aa(lp687
I6
aI0
aI0
aI0
aa(lp688
I5
aI0
aI0
aI0
aa(lp689
I5
aI0
aI0
aI0
aa(lp690
I1
aI0
aI0
aI0
aa(lp691
I3
aI0
aI0
aI0
aa(lp692
I3
aI0
aI0
aI0
aa(lp693
I7
aI0
aI0
aI0
aa(lp694
I5
aI0
aI0
aI0
aa(lp695
I3
aI0
aI0
aI0
aa(lp696
I4
aI0
aI0
aI0
aa(lp697
I4
aI0
aI0
aI0
aa(lp698
I2
aI0
aI0
aI0
aa(lp699
I3
aI0
aI0
aI0
aa(lp700
I4
aI0
aI0
aI0
aa(lp701
I3
aI0
aI0
aI0
aa(lp702
I1
aI0
aI0
aI0
aa(lp703
I5
aI0
aI0
aI0
aa(lp704
I5
aI0
aI0
aI0
aa(lp705
I2
aI0
aI0
aI0
aa(lp706
I4
aI0
aI0
aI0
aa(lp707
I2
aI0
aI0
aI0
aa(lp708
I1
aI0
aI0
aI0
aa(lp709
I2
aI0
aI0
aI0
aa(lp710
I2
aI0
aI0
aI0
aa(lp711
I2
aI0
aI0
aI0
aa(lp712
I5
aI0
aI0
aI0
aa(lp713
I6
aI0
aI0
aI0
aa(lp714
I5
aI0
aI0
aI0
aa(lp715
I3
aI0
aI0
aI0
aa(lp716
I14
aI0
aI0
aI0
aa(lp717
I5
aI0
aI0
aI0
aa(lp718
I0
aI0
aI0
aI0
aa(lp719
I4
aI0
aI0
aI0
aa(lp720
I0
aI0
aI0
aI0
aa(lp721
I7
aI0
aI0
aI0
aa(lp722
I3
aI0
aI0
aI0
aa(lp723
I2
aI0
aI0
aI0
aa(lp724
I4
aI0
aI0
aI0
aa(lp725
I2
aI0
aI0
aI0
aa(lp726
I7
aI0
aI0
aI0
aa(lp727
I3
aI0
aI0
aI0
aa(lp728
I6
aI0
aI0
aI0
aa(lp729
I1
aI0
aI0
aI0
aa(lp730
I3
aI0
aI0
aI0
aa(lp731
I1
aI0
aI0
aI0
aa(lp732
I1
aI0
aI0
aI0
aa(lp733
I1
aI0
aI0
aI0
aa(lp734
I3
aI0
aI0
aI0
aa(lp735
I1
aI0
aI0
aI0
aa(lp736
I2
aI0
aI0
aI0
aa(lp737
I4
aI0
aI0
aI0
aa(lp738
I2
aI0
aI0
aI0
aa(lp739
I3
aI0
aI0
aI0
aa(lp740
I9
aI0
aI0
aI0
aa(lp741
I3
aI0
aI0
aI0
aa(lp742
I3
aI0
aI0
aI0
aa(lp743
I4
aI0
aI0
aI0
aa(lp744
I4
aI0
aI0
aI0
aa(lp745
I2
aI0
aI0
aI0
aa(lp746
I5
aI0
aI0
aI0
aa(lp747
I7
aI0
aI0
aI0
aa(lp748
I3
aI0
aI0
aI0
aa(lp749
I2
aI0
aI0
aI0
aa(lp750
I1
aI0
aI0
aI0
aa(lp751
I8
aI0
aI0
aI0
aa(lp752
I3
aI0
aI0
aI0
aa(lp753
I5
aI0
aI0
aI0
aa(lp754
I2
aI0
aI0
aI0
aa(lp755
I4
aI0
aI0
aI0
aa(lp756
I4
aI0
aI0
aI0
aa(lp757
I2
aI0
aI0
aI0
aa(lp758
I5
aI0
aI0
aI0
aa(lp759
I1
aI0
aI0
aI0
aa(lp760
I2
aI0
aI0
aI0
aa(lp761
I4
aI0
aI0
aI0
aa(lp762
I4
aI0
aI0
aI0
aa(lp763
I1
aI0
aI0
aI0
aa(lp764
I1
aI0
aI0
aI0
aa(lp765
I4
aI0
aI0
aI0
aa(lp766
I3
aI0
aI0
aI0
aa(lp767
I7
aI0
aI0
aI0
aa(lp768
I1
aI0
aI0
aI0
aa(lp769
I4
aI0
aI0
aI0
aa(lp770
I3
aI0
aI0
aI0
aa(lp771
I3
aI0
aI0
aI0
aa(lp772
I6
aI0
aI0
aI0
aa(lp773
I3
aI0
aI0
aI0
aa(lp774
I4
aI0
aI0
aI0
aa(lp775
I3
aI0
aI0
aI0
aa(lp776
I5
aI0
aI0
aI0
aa(lp777
I4
aI0
aI0
aI0
aa(lp778
I0
aI0
aI0
aI0
aa(lp779
I2
aI0
aI0
aI0
aa(lp780
I5
aI0
aI0
aI0
aa(lp781
I4
aI0
aI0
aI0
aa(lp782
I2
aI0
aI0
aI0
aa(lp783
I4
aI0
aI0
aI0
aa(lp784
I6
aI0
aI0
aI0
aa(lp785
I7
aI0
aI0
aI0
aa(lp786
I3
aI0
aI0
aI0
aa(lp787
I1
aI0
aI0
aI0
aa(lp788
I2
aI0
aI0
aI0
aa(lp789
I0
aI0
aI0
aI0
aa(lp790
I3
aI0
aI0
aI0
aa(lp791
I2
aI0
aI0
aI0
aa(lp792
I4
aI0
aI0
aI0
aa(lp793
I6
aI0
aI0
aI0
aa(lp794
I0
aI0
aI0
aI0
aa(lp795
I1
aI0
aI0
aI0
aa(lp796
I7
aI0
aI0
aI0
aa(lp797
I3
aI0
aI0
aI0
aa(lp798
I0
aI0
aI0
aI0
aa(lp799
I2
aI0
aI0
aI0
aa(lp800
I4
aI0
aI0
aI0
aa(lp801
I4
aI0
aI0
aI0
aa(lp802
I4
aI0
aI0
aI0
aa(lp803
I2
aI0
aI0
aI0
aa(lp804
I2
aI0
aI0
aI0
aa(lp805
I5
aI0
aI0
aI0
aa(lp806
I3
aI0
aI0
aI0
aa(lp807
I0
aI0
aI0
aI0
aa(lp808
I1
aI0
aI0
aI0
aa(lp809
I7
aI0
aI0
aI0
aa(lp810
I3
aI0
aI0
aI0
aa(lp811
I4
aI0
aI0
aI0
aa(lp812
I2
aI0
aI0
aI0
aa(lp813
I2
aI0
aI0
aI0
aa(lp814
I4
aI0
aI0
aI0
aa(lp815
I4
aI0
aI0
aI0
aa(lp816
I2
aI0
aI0
aI0
aa(lp817
I4
aI0
aI0
aI0
aa(lp818
I2
aI0
aI0
aI0
aa(lp819
I1
aI0
aI0
aI0
aa(lp820
I0
aI0
aI0
aI0
aa(lp821
I3
aI0
aI0
aI0
aa(lp822
I1
aI0
aI0
aI0
aa(lp823
I1
aI0
aI0
aI0
aa(lp824
I0
aI0
aI0
aI0
aa(lp825
I4
aI0
aI0
aI0
aa(lp826
I0
aI0
aI0
aI0
aa(lp827
I6
aI0
aI0
aI0
aa(lp828
I6
aI0
aI0
aI0
aa(lp829
I13
aI0
aI0
aI0
aa(lp830
I5
aI0
aI0
aI0
aa(lp831
I3
aI0
aI0
aI0
aa(lp832
I4
aI0
aI0
aI0
aa(lp833
I0
aI0
aI0
aI0
aa(lp834
I5
aI0
aI0
aI0
aa.